; Function Attrs: nounwind uwtable
define hidden ptr @nghttp2_session_pop_next_ob_item(ptr noundef %0) local_unnamed_addr #1 {
  %2 = getelementptr inbounds nuw i8, ptr %0, i64 32
  %3 = load ptr, ptr %2, align 8, !tbaa !143
  %.not = icmp eq ptr %3, null
  br i1 %.not, label %6, label %4

4:                                                ; preds = %1
  tail call void @nghttp2_outbound_queue_pop(ptr noundef nonnull %2) #16
  %5 = getelementptr inbounds nuw i8, ptr %3, i64 152
  store i8 0, ptr %5, align 8, !tbaa !111
  br label %session_sched_get_next_outbound_item.exit

6:                                                ; preds = %1
  %7 = getelementptr inbounds nuw i8, ptr %0, i64 56
  %8 = load ptr, ptr %7, align 8, !tbaa !144
  %.not22 = icmp eq ptr %8, null
  br i1 %.not22, label %11, label %9

9:                                                ; preds = %6
  tail call void @nghttp2_outbound_queue_pop(ptr noundef nonnull %7) #16
  %10 = getelementptr inbounds nuw i8, ptr %8, i64 152
  store i8 0, ptr %10, align 8, !tbaa !111
  br label %session_sched_get_next_outbound_item.exit

11:                                               ; preds = %6
  %12 = getelementptr i8, ptr %0, i64 2440
  %.val = load i64, ptr %12, align 8, !tbaa !129
  %13 = getelementptr i8, ptr %0, i64 2604
  %.val25 = load i32, ptr %13, align 4, !tbaa !66
  %14 = zext i32 %.val25 to i64
  %.not26 = icmp ult i64 %.val, %14
  br i1 %.not26, label %15, label %20

15:                                               ; preds = %11
  %16 = getelementptr inbounds nuw i8, ptr %0, i64 80
  %17 = load ptr, ptr %16, align 8, !tbaa !132
  %.not24 = icmp eq ptr %17, null
  br i1 %.not24, label %20, label %18

18:                                               ; preds = %15
  tail call void @nghttp2_outbound_queue_pop(ptr noundef nonnull %16) #16
  %19 = getelementptr inbounds nuw i8, ptr %17, i64 152
  store i8 0, ptr %19, align 8, !tbaa !111
  br label %session_sched_get_next_outbound_item.exit

20:                                               ; preds = %15, %11
  %21 = getelementptr inbounds nuw i8, ptr %0, i64 2572
  %22 = load i32, ptr %21, align 4, !tbaa !48
  %23 = icmp sgt i32 %22, 0
  br i1 %23, label %24, label %session_sched_get_next_outbound_item.exit

24:                                               ; preds = %20
  %25 = getelementptr inbounds nuw i8, ptr %0, i64 104
  br label %28

26:                                               ; preds = %28
  %27 = add nuw nsw i64 %.079.i, 1
  %exitcond.not.i = icmp eq i64 %27, 8
  br i1 %exitcond.not.i, label %session_sched_get_next_outbound_item.exit, label %28, !llvm.loop !146

28:                                               ; preds = %26, %24
  %.079.i = phi i64 [ 0, %24 ], [ %27, %26 ]
  %29 = getelementptr inbounds nuw [8 x %struct.anon], ptr %25, i64 0, i64 %.079.i
  %30 = tail call ptr @nghttp2_pq_top(ptr noundef nonnull %29) #16
  %.not.i = icmp eq ptr %30, null
  br i1 %.not.i, label %26, label %31

31:                                               ; preds = %28
  %32 = getelementptr inbounds nuw i8, ptr %30, i64 56
  %33 = load ptr, ptr %32, align 8, !tbaa !110
  br label %session_sched_get_next_outbound_item.exit

session_sched_get_next_outbound_item.exit:        ; preds = %26, %31, %20, %18, %9, %4
  %.0 = phi ptr [ %3, %4 ], [ %8, %9 ], [ %17, %18 ], [ null, %20 ], [ %33, %31 ], [ null, %26 ]
  ret ptr %.0
}